target datalayout = "e-m:e-p270:32:32-p271:32:32-p272:64:64-i64:64-i128:128-f80:128-n8:16:32:64-S128"
target triple = "x86_64-pc-linux-gnu"

%"class.llvm::RegBankSelect" = type { %"class.llvm::MachineFunctionPass", ptr, ptr, ptr, ptr, ptr, %"class.std::unique_ptr", %"class.llvm::MachineIRBuilder", i32, ptr }
%"class.llvm::MachineFunctionPass" = type { %"class.llvm::FunctionPass.base", %"class.llvm::MachineFunctionProperties", %"class.llvm::MachineFunctionProperties", %"class.llvm::MachineFunctionProperties" }
%"class.llvm::FunctionPass.base" = type { %"class.llvm::Pass.base" }
%"class.llvm::Pass.base" = type <{ ptr, ptr, ptr, i32 }>
%"class.llvm::MachineFunctionProperties" = type { %"class.std::bitset" }
%"class.std::bitset" = type { %"struct.std::_Base_bitset" }
%"struct.std::_Base_bitset" = type { i64 }
%"class.std::unique_ptr" = type { %"struct.std::__uniq_ptr_data" }
%"struct.std::__uniq_ptr_data" = type { %"class.std::__uniq_ptr_impl" }
%"class.std::__uniq_ptr_impl" = type { %"class.std::tuple" }
%"class.std::tuple" = type { %"struct.std::_Tuple_impl" }
%"struct.std::_Tuple_impl" = type { %"struct.std::_Head_base.16" }
%"struct.std::_Head_base.16" = type { ptr }
%"class.llvm::MachineIRBuilder" = type { ptr, %"struct.llvm::MachineIRBuilderState" }
%"struct.llvm::MachineIRBuilderState" = type { ptr, ptr, ptr, %"class.llvm::DebugLoc", ptr, ptr, ptr, %"class.llvm::MachineInstrBundleIterator", ptr, ptr }
%"class.llvm::DebugLoc" = type { %"class.llvm::TypedTrackingMDRef" }
%"class.llvm::TypedTrackingMDRef" = type { %"class.llvm::TrackingMDRef" }
%"class.llvm::TrackingMDRef" = type { ptr }
%"class.llvm::MachineInstrBundleIterator" = type { %"class.llvm::ilist_iterator" }
%"class.llvm::ilist_iterator" = type { ptr }
%"class.llvm::Register" = type { i32 }
%"struct.llvm::RegisterBankInfo::ValueMapping" = type <{ ptr, i32, [4 x i8] }>
%"struct.llvm::RegisterBankInfo::PartialMapping" = type { i32, i32, ptr }
%"class.llvm::MachineOperand" = type { i32, %union.anon.210, ptr, %"union.llvm::MachineOperand::ContentsUnion" }
%union.anon.210 = type { i32 }
%"union.llvm::MachineOperand::ContentsUnion" = type { %"class.llvm::ArrayRef.211" }
%"class.llvm::ArrayRef.211" = type { ptr, i64 }
%"class.llvm::TypeSize" = type { %"class.llvm::details::FixedOrScalableQuantity.base", [7 x i8] }
%"class.llvm::details::FixedOrScalableQuantity.base" = type <{ i64, i8 }>

; Function Attrs: mustprogress nounwind uwtable
define linkonce_odr hidden void @_ZN4llvm8RegisterC2Ej(ptr noundef nonnull align 4 dereferenceable(4) %0, i32 noundef %1) unnamed_addr #1 comdat align 2 {
  %3 = alloca ptr, align 8
  %4 = alloca i32, align 4
  store ptr %0, ptr %3, align 8
  store i32 %1, ptr %4, align 4
  %5 = load ptr, ptr %3, align 8
  %6 = getelementptr inbounds nuw %"class.llvm::Register", ptr %5, i32 0, i32 0
  %7 = load i32, ptr %4, align 4
  store i32 %7, ptr %6, align 4
  ret void
}

; Function Attrs: mustprogress nounwind uwtable
define linkonce_odr hidden noundef i32 @_ZNSt14numeric_limitsIjE3maxEv() #1 comdat align 2 {
  ret i32 -1
}

; Function Attrs: mustprogress nounwind uwtable
define linkonce_odr void @_ZSt4swapIPKN4llvm12RegisterBankEENSt9enable_ifIXsr6__and_ISt6__not_ISt15__is_tuple_likeIT_EESt21is_move_constructibleIS7_ESt18is_move_assignableIS7_EEE5valueEvE4typeERS7_SG_(ptr noundef nonnull align 8 dereferenceable(8) %0, ptr noundef nonnull align 8 dereferenceable(8) %1) #1 comdat {
  %3 = alloca ptr, align 8
  %4 = alloca ptr, align 8
  %5 = alloca ptr, align 8
  store ptr %0, ptr %3, align 8
  store ptr %1, ptr %4, align 8
  %6 = load ptr, ptr %3, align 8
  %7 = load ptr, ptr %6, align 8
  store ptr %7, ptr %5, align 8
  %8 = load ptr, ptr %4, align 8
  %9 = load ptr, ptr %8, align 8
  %10 = load ptr, ptr %3, align 8
  store ptr %9, ptr %10, align 8
  %11 = load ptr, ptr %5, align 8
  %12 = load ptr, ptr %4, align 8
  store ptr %11, ptr %12, align 8
  ret void
}

; Function Attrs: mustprogress nounwind uwtable
define linkonce_odr hidden noundef zeroext i1 @_ZNK4llvm14MachineOperand5isDefEv(ptr noundef nonnull align 8 dereferenceable(32) %0) #1 comdat align 2 {
  %2 = alloca ptr, align 8
  store ptr %0, ptr %2, align 8
  %3 = load ptr, ptr %2, align 8
  %4 = load i32, ptr %3, align 8
  %5 = lshr i32 %4, 24
  %6 = and i32 %5, 1
  %7 = icmp ne i32 %6, 0
  ret i1 %7
}

; Function Attrs: mustprogress nounwind uwtable
define linkonce_odr hidden i32 @_ZNK4llvm14MachineOperand6getRegEv(ptr noundef nonnull align 8 dereferenceable(32) %0) #1 comdat align 2 {
  %2 = alloca %"class.llvm::Register", align 4
  %3 = alloca ptr, align 8
  store ptr %0, ptr %3, align 8
  %4 = load ptr, ptr %3, align 8
  %5 = getelementptr inbounds nuw %"class.llvm::MachineOperand", ptr %4, i32 0, i32 1
  %6 = load i32, ptr %5, align 4
  call void @_ZN4llvm8RegisterC2Ej(ptr noundef nonnull align 4 dereferenceable(4) %2, i32 noundef %6)
  %7 = getelementptr inbounds nuw %"class.llvm::Register", ptr %2, i32 0, i32 0
  %8 = load i32, ptr %7, align 4
  ret i32 %8
}

; Function Attrs: mustprogress nounwind uwtable
define dso_local noundef i64 @_ZNK4llvm13RegBankSelect13getRepairCostERKNS_14MachineOperandERKNS_16RegisterBankInfo12ValueMappingE(ptr noundef nonnull align 8 dereferenceable(208) %0, ptr noundef nonnull align 8 dereferenceable(32) %1, ptr noundef nonnull align 8 dereferenceable(12) %2) #1 align 2 {
  %4 = alloca i64, align 8
  %5 = alloca ptr, align 8
  %6 = alloca ptr, align 8
  %7 = alloca ptr, align 8
  %8 = alloca i8, align 1
  %9 = alloca ptr, align 8
  %10 = alloca %"class.llvm::Register", align 4
  %11 = alloca ptr, align 8
  %12 = alloca i32, align 4
  %13 = alloca %"class.llvm::TypeSize", align 8
  %14 = alloca %"class.llvm::Register", align 4
  %15 = alloca { i64, i8 }, align 8
  store ptr %0, ptr %5, align 8
  store ptr %1, ptr %6, align 8
  store ptr %2, ptr %7, align 8
  %16 = load ptr, ptr %5, align 8
  %17 = load ptr, ptr %7, align 8
  %18 = getelementptr inbounds nuw %"struct.llvm::RegisterBankInfo::ValueMapping", ptr %17, i32 0, i32 1
  %19 = load i32, ptr %18, align 8
  %20 = icmp eq i32 %19, 1
  %21 = zext i1 %20 to i8
  store i8 %21, ptr %8, align 1
  %22 = getelementptr inbounds nuw %"class.llvm::RegBankSelect", ptr %16, i32 0, i32 1
  %23 = load ptr, ptr %22, align 8
  %24 = load ptr, ptr %6, align 8
  %25 = call i32 @_ZNK4llvm14MachineOperand6getRegEv(ptr noundef nonnull align 8 dereferenceable(32) %24)
  %26 = getelementptr inbounds nuw %"class.llvm::Register", ptr %10, i32 0, i32 0
  store i32 %25, ptr %26, align 4
  %27 = getelementptr inbounds nuw %"class.llvm::RegBankSelect", ptr %16, i32 0, i32 2
  %28 = load ptr, ptr %27, align 8
  %29 = getelementptr inbounds nuw %"class.llvm::RegBankSelect", ptr %16, i32 0, i32 3
  %30 = load ptr, ptr %29, align 8
  %31 = getelementptr inbounds nuw %"class.llvm::Register", ptr %10, i32 0, i32 0
  %32 = load i32, ptr %31, align 4
  %33 = call noundef ptr @_ZNK4llvm16RegisterBankInfo10getRegBankENS_8RegisterERKNS_19MachineRegisterInfoERKNS_18TargetRegisterInfoE(ptr noundef nonnull align 8 dereferenceable(160) %23, i32 %32, ptr noundef nonnull align 8 dereferenceable(512) %28, ptr noundef nonnull align 8 dereferenceable(308) %30)
  store ptr %33, ptr %9, align 8
  %34 = load ptr, ptr %7, align 8
  %35 = getelementptr inbounds nuw %"struct.llvm::RegisterBankInfo::ValueMapping", ptr %34, i32 0, i32 1
  %36 = load i32, ptr %35, align 8
  %37 = icmp ne i32 %36, 1
  br i1 %37, label %38, label %48

38:                                               ; preds = %3
  %39 = getelementptr inbounds nuw %"class.llvm::RegBankSelect", ptr %16, i32 0, i32 1
  %40 = load ptr, ptr %39, align 8
  %41 = load ptr, ptr %7, align 8
  %42 = load ptr, ptr %9, align 8
  %43 = load ptr, ptr %40, align 8
  %44 = getelementptr inbounds ptr, ptr %43, i64 6
  %45 = load ptr, ptr %44, align 8
  %46 = call noundef i32 %45(ptr noundef nonnull align 8 dereferenceable(160) %40, ptr noundef nonnull align 8 dereferenceable(12) %41, ptr noundef %42)
  %47 = zext i32 %46 to i64
  store i64 %47, ptr %4, align 8
  br label %96

48:                                               ; preds = %3
  %49 = load i8, ptr %8, align 1
  %50 = trunc i8 %49 to i1
  br i1 %50, label %51, label %93

51:                                               ; preds = %48
  %52 = load ptr, ptr %7, align 8
  %53 = getelementptr inbounds nuw %"struct.llvm::RegisterBankInfo::ValueMapping", ptr %52, i32 0, i32 0
  %54 = load ptr, ptr %53, align 8
  %55 = getelementptr inbounds %"struct.llvm::RegisterBankInfo::PartialMapping", ptr %54, i64 0
  %56 = getelementptr inbounds nuw %"struct.llvm::RegisterBankInfo::PartialMapping", ptr %55, i32 0, i32 2
  %57 = load ptr, ptr %56, align 8
  store ptr %57, ptr %11, align 8
  %58 = load ptr, ptr %6, align 8
  %59 = call noundef zeroext i1 @_ZNK4llvm14MachineOperand5isDefEv(ptr noundef nonnull align 8 dereferenceable(32) %58)
  br i1 %59, label %60, label %61

60:                                               ; preds = %51
  call void @_ZSt4swapIPKN4llvm12RegisterBankEENSt9enable_ifIXsr6__and_ISt6__not_ISt15__is_tuple_likeIT_EESt21is_move_constructibleIS7_ESt18is_move_assignableIS7_EEE5valueEvE4typeERS7_SG_(ptr noundef nonnull align 8 dereferenceable(8) %9, ptr noundef nonnull align 8 dereferenceable(8) %11) #2
  br label %61

61:                                               ; preds = %60, %51
  %62 = getelementptr inbounds nuw %"class.llvm::RegBankSelect", ptr %16, i32 0, i32 1
  %63 = load ptr, ptr %62, align 8
  %64 = load ptr, ptr %11, align 8
  %65 = load ptr, ptr %9, align 8
  %66 = getelementptr inbounds nuw %"class.llvm::RegBankSelect", ptr %16, i32 0, i32 1
  %67 = load ptr, ptr %66, align 8
  %68 = load ptr, ptr %6, align 8
  %69 = call i32 @_ZNK4llvm14MachineOperand6getRegEv(ptr noundef nonnull align 8 dereferenceable(32) %68)
  %70 = getelementptr inbounds nuw %"class.llvm::Register", ptr %14, i32 0, i32 0
  store i32 %69, ptr %70, align 4
  %71 = getelementptr inbounds nuw %"class.llvm::RegBankSelect", ptr %16, i32 0, i32 2
  %72 = load ptr, ptr %71, align 8
  %73 = getelementptr inbounds nuw %"class.llvm::RegBankSelect", ptr %16, i32 0, i32 3
  %74 = load ptr, ptr %73, align 8
  %75 = getelementptr inbounds nuw %"class.llvm::Register", ptr %14, i32 0, i32 0
  %76 = load i32, ptr %75, align 4
  %77 = call { i64, i8 } @_ZNK4llvm16RegisterBankInfo13getSizeInBitsENS_8RegisterERKNS_19MachineRegisterInfoERKNS_18TargetRegisterInfoE(ptr noundef nonnull align 8 dereferenceable(160) %67, i32 %76, ptr noundef nonnull align 8 dereferenceable(512) %72, ptr noundef nonnull align 8 dereferenceable(308) %74)
  store { i64, i8 } %77, ptr %15, align 8
  call void @llvm.memcpy.p0.p0.i64(ptr align 8 %13, ptr align 8 %15, i64 9, i1 false)
  %78 = getelementptr inbounds nuw { i64, i8 }, ptr %13, i32 0, i32 0
  %79 = load i64, ptr %78, align 8
  %80 = getelementptr inbounds nuw { i64, i8 }, ptr %13, i32 0, i32 1
  %81 = load i8, ptr %80, align 8
  %82 = load ptr, ptr %63, align 8
  %83 = getelementptr inbounds ptr, ptr %82, i64 5
  %84 = load ptr, ptr %83, align 8
  %85 = call noundef i32 %84(ptr noundef nonnull align 8 dereferenceable(160) %63, ptr noundef nonnull align 8 dereferenceable(24) %64, ptr noundef nonnull align 8 dereferenceable(24) %65, i64 %79, i8 %81)
  store i32 %85, ptr %12, align 4
  %86 = load i32, ptr %12, align 4
  %87 = call noundef i32 @_ZNSt14numeric_limitsIjE3maxEv() #2
  %88 = icmp ne i32 %86, %87
  br i1 %88, label %89, label %92

89:                                               ; preds = %61
  %90 = load i32, ptr %12, align 4
  %91 = zext i32 %90 to i64
  store i64 %91, ptr %4, align 8
  br label %96

92:                                               ; preds = %61
  br label %93

93:                                               ; preds = %92, %48
  %94 = call noundef i32 @_ZNSt14numeric_limitsIjE3maxEv() #2
  %95 = zext i32 %94 to i64
  store i64 %95, ptr %4, align 8
  br label %96

96:                                               ; preds = %93, %89, %38
  %97 = load i64, ptr %4, align 8
  ret i64 %97
}