; Function Attrs: mustprogress nounwind uwtable
define dso_local noundef range(i64 0, 4294967296) i64 @_ZNK4llvm13RegBankSelect13getRepairCostERKNS_14MachineOperandERKNS_16RegisterBankInfo12ValueMappingE(ptr noundef nonnull readonly align 8 captures(none) dereferenceable(208) %0, ptr noundef nonnull readonly align 8 captures(none) dereferenceable(32) %1, ptr noundef nonnull align 8 dereferenceable(12) %2) local_unnamed_addr #0 align 2 {
  %4 = getelementptr inbounds nuw i8, ptr %2, i64 8
  %5 = load i32, ptr %4, align 8
  %6 = getelementptr inbounds nuw i8, ptr %0, i64 56
  %7 = load ptr, ptr %6, align 8
  %8 = getelementptr inbounds nuw i8, ptr %1, i64 4
  %9 = load i32, ptr %8, align 4
  %10 = getelementptr inbounds nuw i8, ptr %0, i64 64
  %11 = load ptr, ptr %10, align 8
  %12 = getelementptr inbounds nuw i8, ptr %0, i64 72
  %13 = load ptr, ptr %12, align 8
  %14 = tail call noundef ptr @_ZNK4llvm16RegisterBankInfo10getRegBankENS_8RegisterERKNS_19MachineRegisterInfoERKNS_18TargetRegisterInfoE(ptr noundef nonnull align 8 dereferenceable(160) %7, i32 %9, ptr noundef nonnull align 8 dereferenceable(512) %11, ptr noundef nonnull align 8 dereferenceable(308) %13) #21
  %15 = load i32, ptr %4, align 8
  %.not = icmp eq i32 %15, 1
  br i1 %.not, label %22, label %16

16:                                               ; preds = %3
  %17 = load ptr, ptr %6, align 8
  %18 = load ptr, ptr %17, align 8
  %19 = getelementptr inbounds nuw i8, ptr %18, i64 48
  %20 = load ptr, ptr %19, align 8
  %21 = tail call noundef i32 %20(ptr noundef nonnull align 8 dereferenceable(160) %17, ptr noundef nonnull align 8 dereferenceable(12) %2, ptr noundef %14) #21
  br label %40

22:                                               ; preds = %3
  %23 = icmp eq i32 %5, 1
  br i1 %23, label %24, label %39

24:                                               ; preds = %22
  %25 = load ptr, ptr %2, align 8
  %26 = getelementptr inbounds nuw i8, ptr %25, i64 8
  %27 = load ptr, ptr %26, align 8
  %28 = load i32, ptr %1, align 8
  %29 = and i32 %28, 16777216
  %.not23 = icmp eq i32 %29, 0
  %spec.select = select i1 %.not23, ptr %14, ptr %27
  %spec.select22 = select i1 %.not23, ptr %27, ptr %14
  %30 = load ptr, ptr %6, align 8
  %31 = load i32, ptr %8, align 4
  %32 = load ptr, ptr %10, align 8
  %33 = load ptr, ptr %12, align 8
  %34 = tail call { i64, i8 } @_ZNK4llvm16RegisterBankInfo13getSizeInBitsENS_8RegisterERKNS_19MachineRegisterInfoERKNS_18TargetRegisterInfoE(ptr noundef nonnull align 8 dereferenceable(160) %30, i32 %31, ptr noundef nonnull align 8 dereferenceable(512) %32, ptr noundef nonnull align 8 dereferenceable(308) %33) #21
  %.fca.0.extract = extractvalue { i64, i8 } %34, 0
  %.fca.1.extract = extractvalue { i64, i8 } %34, 1
  %35 = load ptr, ptr %30, align 8
  %36 = getelementptr inbounds nuw i8, ptr %35, i64 40
  %37 = load ptr, ptr %36, align 8
  %38 = tail call noundef i32 %37(ptr noundef nonnull align 8 dereferenceable(160) %30, ptr noundef nonnull align 8 dereferenceable(24) %spec.select22, ptr noundef nonnull align 8 dereferenceable(24) %spec.select, i64 %.fca.0.extract, i8 %.fca.1.extract) #21
  %.not16 = icmp eq i32 %38, -1
  br i1 %.not16, label %39, label %40

39:                                               ; preds = %24, %22
  br label %40

40:                                               ; preds = %24, %39, %16
  %.0.in = phi i32 [ %21, %16 ], [ -1, %39 ], [ %38, %24 ]
  %.0 = zext i32 %.0.in to i64
  ret i64 %.0
}